target datalayout = "e-m:e-p270:32:32-p271:32:32-p272:64:64-i64:64-i128:128-f80:128-n8:16:32:64-S128"
target triple = "x86_64-pc-linux-gnu"

%struct.ParseEnv = type { i32, i32, ptr, ptr, i32, i32, i32, ptr, ptr, ptr, ptr, ptr, i32, i32, i32, i32, [8 x %struct.MemEnv], ptr, i32, i32, i32, i32, ptr, ptr, i32, i32 }
%struct.MemEnv = type { ptr, ptr }
%struct._Node = type { %union.anon.35 }
%union.anon.35 = type { %struct.BagNode }
%struct.BagNode = type { i32, i32, ptr, ptr, i32, %union.anon.37, i32, i32, i32, i32, i32 }
%union.anon.37 = type { %struct.anon.40 }
%struct.anon.40 = type { ptr, ptr }
%struct.anon.36 = type { i32, i32, ptr, ptr }
%struct.ConsAltNode = type { i32, i32, ptr, ptr, ptr }
%struct.anon.38 = type { i32, i32, i32, i32 }
%struct.QuantNode = type { i32, i32, ptr, ptr, i32, i32, i32, i32, ptr, ptr, i32, i32 }
%struct.AnchorNode = type { i32, i32, ptr, ptr, i32, i32, i32, i32, ptr }

; Function Attrs: nounwind uwtable
define internal i32 @set_empty_repeat_node_trav(ptr noundef %0, ptr noundef %1, ptr noundef %2) #0 {
  %4 = alloca i32, align 4
  %5 = alloca ptr, align 8
  %6 = alloca ptr, align 8
  %7 = alloca ptr, align 8
  %8 = alloca i32, align 4
  %9 = alloca ptr, align 8
  %10 = alloca i32, align 4
  %11 = alloca ptr, align 8
  %12 = alloca ptr, align 8
  store ptr %0, ptr %5, align 8, !tbaa !47
  store ptr %1, ptr %6, align 8, !tbaa !47
  store ptr %2, ptr %7, align 8, !tbaa !15
  call void @llvm.lifetime.start.p0(i64 4, ptr %8) #9
  %13 = load ptr, ptr %5, align 8, !tbaa !47
  %14 = getelementptr inbounds nuw %struct._Node, ptr %13, i32 0, i32 0
  %15 = getelementptr inbounds nuw %struct.anon.36, ptr %14, i32 0, i32 0
  %16 = load i32, ptr %15, align 8, !tbaa !32
  switch i32 %16, label %185 [
    i32 7, label %17
    i32 8, label %17
    i32 6, label %38
    i32 4, label %63
    i32 5, label %80
  ]

17:                                               ; preds = %3, %3
  br label %18

18:                                               ; preds = %35, %17
  %19 = load ptr, ptr %5, align 8, !tbaa !47
  %20 = getelementptr inbounds nuw %struct._Node, ptr %19, i32 0, i32 0
  %21 = getelementptr inbounds nuw %struct.ConsAltNode, ptr %20, i32 0, i32 3
  %22 = load ptr, ptr %21, align 8, !tbaa !32
  %23 = load ptr, ptr %6, align 8, !tbaa !47
  %24 = load ptr, ptr %7, align 8, !tbaa !15
  %25 = call i32 @set_empty_repeat_node_trav(ptr noundef %22, ptr noundef %23, ptr noundef %24)
  store i32 %25, ptr %8, align 4, !tbaa !4
  br label %26

26:                                               ; preds = %18
  %27 = load i32, ptr %8, align 4, !tbaa !4
  %28 = icmp eq i32 %27, 0
  br i1 %28, label %29, label %35

29:                                               ; preds = %26
  %30 = load ptr, ptr %5, align 8, !tbaa !47
  %31 = getelementptr inbounds nuw %struct._Node, ptr %30, i32 0, i32 0
  %32 = getelementptr inbounds nuw %struct.ConsAltNode, ptr %31, i32 0, i32 4
  %33 = load ptr, ptr %32, align 8, !tbaa !32
  store ptr %33, ptr %5, align 8, !tbaa !47
  %34 = icmp ne ptr %33, null
  br label %35

35:                                               ; preds = %29, %26
  %36 = phi i1 [ false, %26 ], [ %34, %29 ]
  br i1 %36, label %18, label %37, !llvm.loop !195

37:                                               ; preds = %35
  br label %186

38:                                               ; preds = %3
  call void @llvm.lifetime.start.p0(i64 8, ptr %9) #9
  %39 = load ptr, ptr %5, align 8, !tbaa !47
  %40 = getelementptr inbounds nuw %struct._Node, ptr %39, i32 0, i32 0
  store ptr %40, ptr %9, align 8, !tbaa !15
  %41 = load ptr, ptr %9, align 8, !tbaa !15
  %42 = getelementptr inbounds nuw %struct.AnchorNode, ptr %41, i32 0, i32 4
  %43 = load i32, ptr %42, align 8, !tbaa !184
  %44 = icmp slt i32 %43, 16
  br i1 %44, label %46, label %45

45:                                               ; preds = %38
  store i32 0, ptr %8, align 4, !tbaa !4
  store i32 2, ptr %10, align 4
  br label %60

46:                                               ; preds = %38
  %47 = load ptr, ptr %9, align 8, !tbaa !15
  %48 = getelementptr inbounds nuw %struct.AnchorNode, ptr %47, i32 0, i32 4
  %49 = load i32, ptr %48, align 8, !tbaa !184
  switch i32 %49, label %51 [
    i32 1, label %50
    i32 4, label %50
  ]

50:                                               ; preds = %46, %46
  store ptr null, ptr %6, align 8, !tbaa !47
  br label %52

51:                                               ; preds = %46
  br label %52

52:                                               ; preds = %51, %50
  %53 = load ptr, ptr %5, align 8, !tbaa !47
  %54 = getelementptr inbounds nuw %struct._Node, ptr %53, i32 0, i32 0
  %55 = getelementptr inbounds nuw %struct.anon.36, ptr %54, i32 0, i32 3
  %56 = load ptr, ptr %55, align 8, !tbaa !32
  %57 = load ptr, ptr %6, align 8, !tbaa !47
  %58 = load ptr, ptr %7, align 8, !tbaa !15
  %59 = call i32 @set_empty_repeat_node_trav(ptr noundef %56, ptr noundef %57, ptr noundef %58)
  store i32 %59, ptr %8, align 4, !tbaa !4
  store i32 0, ptr %10, align 4
  br label %60

60:                                               ; preds = %52, %45
  call void @llvm.lifetime.end.p0(i64 8, ptr %9) #9
  %61 = load i32, ptr %10, align 4
  switch i32 %61, label %190 [
    i32 0, label %62
    i32 2, label %186
  ]

62:                                               ; preds = %60
  br label %186

63:                                               ; preds = %3
  call void @llvm.lifetime.start.p0(i64 8, ptr %11) #9
  %64 = load ptr, ptr %5, align 8, !tbaa !47
  %65 = getelementptr inbounds nuw %struct._Node, ptr %64, i32 0, i32 0
  store ptr %65, ptr %11, align 8, !tbaa !15
  %66 = load ptr, ptr %11, align 8, !tbaa !15
  %67 = getelementptr inbounds nuw %struct.QuantNode, ptr %66, i32 0, i32 7
  %68 = load i32, ptr %67, align 4, !tbaa !152
  %69 = icmp ne i32 %68, 0
  br i1 %69, label %70, label %72

70:                                               ; preds = %63
  %71 = load ptr, ptr %5, align 8, !tbaa !47
  store ptr %71, ptr %6, align 8, !tbaa !47
  br label %72

72:                                               ; preds = %70, %63
  %73 = load ptr, ptr %5, align 8, !tbaa !47
  %74 = getelementptr inbounds nuw %struct._Node, ptr %73, i32 0, i32 0
  %75 = getelementptr inbounds nuw %struct.anon.36, ptr %74, i32 0, i32 3
  %76 = load ptr, ptr %75, align 8, !tbaa !32
  %77 = load ptr, ptr %6, align 8, !tbaa !47
  %78 = load ptr, ptr %7, align 8, !tbaa !15
  %79 = call i32 @set_empty_repeat_node_trav(ptr noundef %76, ptr noundef %77, ptr noundef %78)
  store i32 %79, ptr %8, align 4, !tbaa !4
  call void @llvm.lifetime.end.p0(i64 8, ptr %11) #9
  br label %186

80:                                               ; preds = %3
  %81 = load ptr, ptr %5, align 8, !tbaa !47
  %82 = getelementptr inbounds nuw %struct._Node, ptr %81, i32 0, i32 0
  %83 = getelementptr inbounds nuw %struct.anon.36, ptr %82, i32 0, i32 3
  %84 = load ptr, ptr %83, align 8, !tbaa !32
  %85 = icmp ne ptr %84, null
  br i1 %85, label %86, label %99

86:                                               ; preds = %80
  %87 = load ptr, ptr %5, align 8, !tbaa !47
  %88 = getelementptr inbounds nuw %struct._Node, ptr %87, i32 0, i32 0
  %89 = getelementptr inbounds nuw %struct.anon.36, ptr %88, i32 0, i32 3
  %90 = load ptr, ptr %89, align 8, !tbaa !32
  %91 = load ptr, ptr %6, align 8, !tbaa !47
  %92 = load ptr, ptr %7, align 8, !tbaa !15
  %93 = call i32 @set_empty_repeat_node_trav(ptr noundef %90, ptr noundef %91, ptr noundef %92)
  store i32 %93, ptr %8, align 4, !tbaa !4
  %94 = load i32, ptr %8, align 4, !tbaa !4
  %95 = icmp ne i32 %94, 0
  br i1 %95, label %96, label %98

96:                                               ; preds = %86
  %97 = load i32, ptr %8, align 4, !tbaa !4
  store i32 %97, ptr %4, align 4
  store i32 1, ptr %10, align 4
  br label %188

98:                                               ; preds = %86
  br label %99

99:                                               ; preds = %98, %80
  call void @llvm.lifetime.start.p0(i64 8, ptr %12) #9
  %100 = load ptr, ptr %5, align 8, !tbaa !47
  %101 = getelementptr inbounds nuw %struct._Node, ptr %100, i32 0, i32 0
  store ptr %101, ptr %12, align 8, !tbaa !15
  store i32 0, ptr %8, align 4, !tbaa !4
  %102 = load ptr, ptr %12, align 8, !tbaa !15
  %103 = getelementptr inbounds nuw %struct.BagNode, ptr %102, i32 0, i32 4
  %104 = load i32, ptr %103, align 8, !tbaa !156
  %105 = icmp eq i32 %104, 0
  br i1 %105, label %106, label %141

106:                                              ; preds = %99
  %107 = load ptr, ptr %5, align 8, !tbaa !47
  %108 = getelementptr inbounds nuw %struct._Node, ptr %107, i32 0, i32 0
  %109 = getelementptr inbounds nuw %struct.anon.36, ptr %108, i32 0, i32 1
  %110 = load i32, ptr %109, align 4, !tbaa !32
  %111 = and i32 %110, 65536
  %112 = icmp ne i32 %111, 0
  br i1 %112, label %113, label %140

113:                                              ; preds = %106
  %114 = load ptr, ptr %6, align 8, !tbaa !47
  %115 = icmp ne ptr %114, null
  br i1 %115, label %116, label %139

116:                                              ; preds = %113
  %117 = load ptr, ptr %6, align 8, !tbaa !47
  %118 = load ptr, ptr %7, align 8, !tbaa !15
  %119 = getelementptr inbounds nuw %struct.ParseEnv, ptr %118, i32 0, i32 17
  %120 = load ptr, ptr %119, align 8, !tbaa !50
  %121 = icmp ne ptr %120, null
  br i1 %121, label %122, label %126

122:                                              ; preds = %116
  %123 = load ptr, ptr %7, align 8, !tbaa !15
  %124 = getelementptr inbounds nuw %struct.ParseEnv, ptr %123, i32 0, i32 17
  %125 = load ptr, ptr %124, align 8, !tbaa !50
  br label %130

126:                                              ; preds = %116
  %127 = load ptr, ptr %7, align 8, !tbaa !15
  %128 = getelementptr inbounds nuw %struct.ParseEnv, ptr %127, i32 0, i32 16
  %129 = getelementptr inbounds [8 x %struct.MemEnv], ptr %128, i64 0, i64 0
  br label %130

130:                                              ; preds = %126, %122
  %131 = phi ptr [ %125, %122 ], [ %129, %126 ]
  %132 = load ptr, ptr %12, align 8, !tbaa !15
  %133 = getelementptr inbounds nuw %struct.BagNode, ptr %132, i32 0, i32 5
  %134 = getelementptr inbounds nuw %struct.anon.38, ptr %133, i32 0, i32 0
  %135 = load i32, ptr %134, align 8, !tbaa !32
  %136 = sext i32 %135 to i64
  %137 = getelementptr inbounds %struct.MemEnv, ptr %131, i64 %136
  %138 = getelementptr inbounds nuw %struct.MemEnv, ptr %137, i32 0, i32 1
  store ptr %117, ptr %138, align 8, !tbaa !196
  br label %139

139:                                              ; preds = %130, %113
  br label %140

140:                                              ; preds = %139, %106
  br label %181

141:                                              ; preds = %99
  %142 = load ptr, ptr %12, align 8, !tbaa !15
  %143 = getelementptr inbounds nuw %struct.BagNode, ptr %142, i32 0, i32 4
  %144 = load i32, ptr %143, align 8, !tbaa !156
  %145 = icmp eq i32 %144, 3
  br i1 %145, label %146, label %180

146:                                              ; preds = %141
  %147 = load ptr, ptr %12, align 8, !tbaa !15
  %148 = getelementptr inbounds nuw %struct.BagNode, ptr %147, i32 0, i32 5
  %149 = getelementptr inbounds nuw %struct.anon.40, ptr %148, i32 0, i32 0
  %150 = load ptr, ptr %149, align 8, !tbaa !32
  %151 = icmp ne ptr %150, null
  br i1 %151, label %152, label %165

152:                                              ; preds = %146
  %153 = load ptr, ptr %12, align 8, !tbaa !15
  %154 = getelementptr inbounds nuw %struct.BagNode, ptr %153, i32 0, i32 5
  %155 = getelementptr inbounds nuw %struct.anon.40, ptr %154, i32 0, i32 0
  %156 = load ptr, ptr %155, align 8, !tbaa !32
  %157 = load ptr, ptr %6, align 8, !tbaa !47
  %158 = load ptr, ptr %7, align 8, !tbaa !15
  %159 = call i32 @set_empty_repeat_node_trav(ptr noundef %156, ptr noundef %157, ptr noundef %158)
  store i32 %159, ptr %8, align 4, !tbaa !4
  %160 = load i32, ptr %8, align 4, !tbaa !4
  %161 = icmp ne i32 %160, 0
  br i1 %161, label %162, label %164

162:                                              ; preds = %152
  %163 = load i32, ptr %8, align 4, !tbaa !4
  store i32 %163, ptr %4, align 4
  store i32 1, ptr %10, align 4
  br label %182

164:                                              ; preds = %152
  br label %165

165:                                              ; preds = %164, %146
  %166 = load ptr, ptr %12, align 8, !tbaa !15
  %167 = getelementptr inbounds nuw %struct.BagNode, ptr %166, i32 0, i32 5
  %168 = getelementptr inbounds nuw %struct.anon.40, ptr %167, i32 0, i32 1
  %169 = load ptr, ptr %168, align 8, !tbaa !32
  %170 = icmp ne ptr %169, null
  br i1 %170, label %171, label %179

171:                                              ; preds = %165
  %172 = load ptr, ptr %12, align 8, !tbaa !15
  %173 = getelementptr inbounds nuw %struct.BagNode, ptr %172, i32 0, i32 5
  %174 = getelementptr inbounds nuw %struct.anon.40, ptr %173, i32 0, i32 1
  %175 = load ptr, ptr %174, align 8, !tbaa !32
  %176 = load ptr, ptr %6, align 8, !tbaa !47
  %177 = load ptr, ptr %7, align 8, !tbaa !15
  %178 = call i32 @set_empty_repeat_node_trav(ptr noundef %175, ptr noundef %176, ptr noundef %177)
  store i32 %178, ptr %8, align 4, !tbaa !4
  br label %179

179:                                              ; preds = %171, %165
  br label %180

180:                                              ; preds = %179, %141
  br label %181

181:                                              ; preds = %180, %140
  store i32 0, ptr %10, align 4
  br label %182

182:                                              ; preds = %181, %162
  call void @llvm.lifetime.end.p0(i64 8, ptr %12) #9
  %183 = load i32, ptr %10, align 4
  switch i32 %183, label %188 [
    i32 0, label %184
  ]

184:                                              ; preds = %182
  br label %186

185:                                              ; preds = %3
  store i32 0, ptr %8, align 4, !tbaa !4
  br label %186

186:                                              ; preds = %185, %184, %72, %62, %60, %37
  %187 = load i32, ptr %8, align 4, !tbaa !4
  store i32 %187, ptr %4, align 4
  store i32 1, ptr %10, align 4
  br label %188

188:                                              ; preds = %186, %182, %96
  call void @llvm.lifetime.end.p0(i64 4, ptr %8) #9
  %189 = load i32, ptr %4, align 4
  ret i32 %189

190:                                              ; preds = %60
  unreachable
}