; Function Attrs: nofree nosync nounwind memory(readwrite, inaccessiblemem: none) uwtable
define internal fastcc void @set_empty_repeat_node_trav(ptr noundef %0, ptr noundef %1, ptr noundef nonnull %2) unnamed_addr #15 {
  br label %tailrecurse.outer

tailrecurse.outer:                                ; preds = %tailrecurse.outer.backedge, %3
  %.tr.ph = phi ptr [ %0, %3 ], [ %.tr.ph.be, %tailrecurse.outer.backedge ]
  %.tr71.ph = phi ptr [ %1, %3 ], [ %.tr71.ph.be, %tailrecurse.outer.backedge ]
  br label %tailrecurse

tailrecurse:                                      ; preds = %45, %tailrecurse.outer
  %.tr = phi ptr [ %47, %45 ], [ %.tr.ph, %tailrecurse.outer ]
  %4 = load i32, ptr %.tr, align 8, !tbaa !20
  switch i32 %4, label %.critedge [
    i32 7, label %.preheader
    i32 8, label %.preheader
    i32 6, label %10
    i32 4, label %16
    i32 5, label %19
  ]

.preheader:                                       ; preds = %tailrecurse, %tailrecurse
  br label %5

5:                                                ; preds = %.preheader, %5
  %.047 = phi ptr [ %9, %5 ], [ %.tr, %.preheader ]
  %6 = getelementptr inbounds nuw i8, ptr %.047, i64 16
  %7 = load ptr, ptr %6, align 8, !tbaa !20
  tail call fastcc void @set_empty_repeat_node_trav(ptr noundef %7, ptr noundef %.tr71.ph, ptr noundef %2)
  %8 = getelementptr inbounds nuw i8, ptr %.047, i64 24
  %9 = load ptr, ptr %8, align 8, !tbaa !20
  %.not70 = icmp eq ptr %9, null
  br i1 %.not70, label %.critedge, label %5, !llvm.loop !247

10:                                               ; preds = %tailrecurse
  %11 = getelementptr inbounds nuw i8, ptr %.tr, i64 24
  %12 = load i32, ptr %11, align 8, !tbaa !155
  %13 = icmp slt i32 %12, 16
  br i1 %13, label %14, label %.critedge

14:                                               ; preds = %10
  switch i32 %12, label %tailrecurse.outer.backedge [
    i32 1, label %15
    i32 4, label %15
  ]

15:                                               ; preds = %14, %14
  br label %tailrecurse.outer.backedge

tailrecurse.outer.backedge:                       ; preds = %15, %14, %16
  %.tr71.ph.be = phi ptr [ %spec.select, %16 ], [ %.tr71.ph, %14 ], [ null, %15 ]
  %.tr.ph.be.in = getelementptr inbounds nuw i8, ptr %.tr, i64 16
  %.tr.ph.be = load ptr, ptr %.tr.ph.be.in, align 8, !tbaa !20
  br label %tailrecurse.outer

16:                                               ; preds = %tailrecurse
  %17 = getelementptr inbounds nuw i8, ptr %.tr, i64 36
  %18 = load i32, ptr %17, align 4, !tbaa !140
  %.not69 = icmp eq i32 %18, 0
  %spec.select = select i1 %.not69, ptr %.tr71.ph, ptr %.tr
  br label %tailrecurse.outer.backedge

19:                                               ; preds = %tailrecurse
  %20 = getelementptr inbounds nuw i8, ptr %.tr, i64 16
  %21 = load ptr, ptr %20, align 8, !tbaa !20
  %.not = icmp eq ptr %21, null
  br i1 %.not, label %23, label %22

22:                                               ; preds = %19
  tail call fastcc void @set_empty_repeat_node_trav(ptr noundef nonnull %21, ptr noundef %.tr71.ph, ptr noundef %2)
  br label %23

23:                                               ; preds = %22, %19
  %24 = getelementptr inbounds nuw i8, ptr %.tr, i64 24
  %25 = load i32, ptr %24, align 8, !tbaa !98
  switch i32 %25, label %.critedge [
    i32 0, label %26
    i32 3, label %41
  ]

26:                                               ; preds = %23
  %27 = getelementptr inbounds nuw i8, ptr %.tr, i64 4
  %28 = load i32, ptr %27, align 4, !tbaa !20
  %29 = and i32 %28, 65536
  %30 = icmp ne i32 %29, 0
  %31 = icmp ne ptr %.tr71.ph, null
  %or.cond = and i1 %31, %30
  br i1 %or.cond, label %32, label %.critedge

32:                                               ; preds = %26
  %33 = getelementptr inbounds nuw i8, ptr %2, i64 224
  %34 = load ptr, ptr %33, align 8, !tbaa !89
  %.not68 = icmp eq ptr %34, null
  %35 = getelementptr inbounds nuw i8, ptr %2, i64 96
  %36 = select i1 %.not68, ptr %35, ptr %34
  %37 = getelementptr inbounds nuw i8, ptr %.tr, i64 32
  %38 = load i32, ptr %37, align 8, !tbaa !20
  %39 = sext i32 %38 to i64
  %40 = getelementptr inbounds %struct.MemEnv, ptr %36, i64 %39, i32 1
  store ptr %.tr71.ph, ptr %40, align 8, !tbaa !248
  br label %.critedge

41:                                               ; preds = %23
  %42 = getelementptr inbounds nuw i8, ptr %.tr, i64 32
  %43 = load ptr, ptr %42, align 8, !tbaa !20
  %.not66 = icmp eq ptr %43, null
  br i1 %.not66, label %45, label %44

44:                                               ; preds = %41
  tail call fastcc void @set_empty_repeat_node_trav(ptr noundef nonnull %43, ptr noundef %.tr71.ph, ptr noundef %2)
  br label %45

45:                                               ; preds = %44, %41
  %46 = getelementptr inbounds nuw i8, ptr %.tr, i64 40
  %47 = load ptr, ptr %46, align 8, !tbaa !20
  %.not67 = icmp eq ptr %47, null
  br i1 %.not67, label %.critedge, label %tailrecurse

.critedge:                                        ; preds = %10, %45, %23, %tailrecurse, %5, %32, %26
  ret void
}